target datalayout = "e-m:e-p270:32:32-p271:32:32-p272:64:64-i64:64-i128:128-f80:128-n8:16:32:64-S128"
target triple = "x86_64-unknown-linux-gnu"

; Function Attrs: mustprogress nounwind uwtable
define linkonce_odr noundef ptr @_ZN6icu_758Collator13fromUCollatorEPK9UCollator(ptr noundef %uc) #1 comdat align 2 {
entry:
  %uc.addr = alloca ptr, align 8
  store ptr %uc, ptr %uc.addr, align 8
  %0 = load ptr, ptr %uc.addr, align 8
  ret ptr %0
}

; Function Attrs: mustprogress uwtable
define void @ucol_getUCAVersion_75(ptr noundef %coll, ptr noundef %info) #0 {
entry:
  %coll.addr = alloca ptr, align 8
  %info.addr = alloca ptr, align 8
  %c = alloca ptr, align 8
  %v = alloca [4 x i8], align 1
  store ptr %coll, ptr %coll.addr, align 8
  store ptr %info, ptr %info.addr, align 8
  %0 = load ptr, ptr %coll.addr, align 8
  %call = call noundef ptr @_ZN6icu_758Collator13fromUCollatorEPK9UCollator(ptr noundef %0)
  store ptr %call, ptr %c, align 8
  %1 = load ptr, ptr %c, align 8
  %cmp = icmp ne ptr %1, null
  br i1 %cmp, label %if.then, label %if.end

if.then:                                          ; preds = %entry
  %2 = load ptr, ptr %c, align 8
  %arraydecay = getelementptr inbounds [4 x i8], ptr %v, i64 0, i64 0
  %vtable = load ptr, ptr %2, align 8
  %vfn = getelementptr inbounds ptr, ptr %vtable, i64 22
  %3 = load ptr, ptr %vfn, align 8
  call void %3(ptr noundef nonnull align 8 dereferenceable(8) %2, ptr noundef %arraydecay)
  %arrayidx = getelementptr inbounds [4 x i8], ptr %v, i64 0, i64 1
  %4 = load i8, ptr %arrayidx, align 1
  %conv = zext i8 %4 to i32
  %shr = ashr i32 %conv, 3
  %conv1 = trunc i32 %shr to i8
  %5 = load ptr, ptr %info.addr, align 8
  %arrayidx2 = getelementptr inbounds i8, ptr %5, i64 0
  store i8 %conv1, ptr %arrayidx2, align 1
  %arrayidx3 = getelementptr inbounds [4 x i8], ptr %v, i64 0, i64 1
  %6 = load i8, ptr %arrayidx3, align 1
  %conv4 = zext i8 %6 to i32
  %and = and i32 %conv4, 7
  %conv5 = trunc i32 %and to i8
  %7 = load ptr, ptr %info.addr, align 8
  %arrayidx6 = getelementptr inbounds i8, ptr %7, i64 1
  store i8 %conv5, ptr %arrayidx6, align 1
  %arrayidx7 = getelementptr inbounds [4 x i8], ptr %v, i64 0, i64 2
  %8 = load i8, ptr %arrayidx7, align 1
  %conv8 = zext i8 %8 to i32
  %shr9 = ashr i32 %conv8, 6
  %conv10 = trunc i32 %shr9 to i8
  %9 = load ptr, ptr %info.addr, align 8
  %arrayidx11 = getelementptr inbounds i8, ptr %9, i64 2
  store i8 %conv10, ptr %arrayidx11, align 1
  %10 = load ptr, ptr %info.addr, align 8
  %arrayidx12 = getelementptr inbounds i8, ptr %10, i64 3
  store i8 0, ptr %arrayidx12, align 1
  br label %if.end

if.end:                                           ; preds = %if.then, %entry
  ret void
}