; Function Attrs: mustprogress uwtable
define void @ucol_getUCAVersion_75(ptr noundef %coll, ptr nocapture noundef writeonly %info) local_unnamed_addr #0 {
entry:
  %v = alloca [4 x i8], align 1
  %cmp.not = icmp eq ptr %coll, null
  br i1 %cmp.not, label %if.end, label %if.then

if.then:                                          ; preds = %entry
  %vtable = load ptr, ptr %coll, align 8
  %vfn = getelementptr inbounds i8, ptr %vtable, i64 176
  %0 = load ptr, ptr %vfn, align 8
  call void %0(ptr noundef nonnull align 8 dereferenceable(8) %coll, ptr noundef nonnull %v)
  %arrayidx = getelementptr inbounds i8, ptr %v, i64 1
  %1 = load i8, ptr %arrayidx, align 1
  %2 = lshr i8 %1, 3
  store i8 %2, ptr %info, align 1
  %3 = and i8 %1, 7
  %arrayidx6 = getelementptr inbounds i8, ptr %info, i64 1
  store i8 %3, ptr %arrayidx6, align 1
  %arrayidx7 = getelementptr inbounds i8, ptr %v, i64 2
  %4 = load i8, ptr %arrayidx7, align 1
  %5 = lshr i8 %4, 6
  %arrayidx11 = getelementptr inbounds i8, ptr %info, i64 2
  store i8 %5, ptr %arrayidx11, align 1
  %arrayidx12 = getelementptr inbounds i8, ptr %info, i64 3
  store i8 0, ptr %arrayidx12, align 1
  br label %if.end

if.end:                                           ; preds = %if.then, %entry
  ret void
}